; ModuleID = 'source-C-CXX/61/3198.c'
source_filename = "source-C-CXX/61/3198.c"
target datalayout = "e-m:e-p270:32:32-p271:32:32-p272:64:64-i64:64-f80:128-n8:16:32:64-S128"
target triple = "x86_64-pc-linux-gnu"

; Function Attrs: nounwind sspstrong uwtable
define dso_local i32 @main() local_unnamed_addr #0 {
  %1 = alloca [300 x i8], align 16
  %2 = getelementptr inbounds [300 x i8], [300 x i8]* %1, i64 0, i64 0
  call void @llvm.lifetime.start.p0i8(i64 300, i8* nonnull %2) #5
  %3 = call i32 (i8*, ...) bitcast (i32 (...)* @gets to i32 (i8*, ...)*)(i8* nonnull %2) #5
  %4 = load i8, i8* %2, align 16
  %5 = icmp eq i8 %4, 0
  br i1 %5, label %24, label %6

6:                                                ; preds = %0, %21
  %7 = phi i8 [ %23, %21 ], [ %4, %0 ]
  %8 = phi i64 [ %10, %21 ], [ 0, %0 ]
  %9 = icmp eq i8 %7, 32
  %10 = add nuw i64 %8, 1
  br i1 %9, label %11, label %15

11:                                               ; preds = %6
  %12 = getelementptr inbounds [300 x i8], [300 x i8]* %1, i64 0, i64 %10
  %13 = load i8, i8* %12, align 1, !tbaa !5
  %14 = icmp eq i8 %13, 32
  br i1 %14, label %18, label %15

15:                                               ; preds = %6, %11
  %16 = sext i8 %7 to i32
  %17 = call i32 @putchar(i32 %16)
  br label %18

18:                                               ; preds = %11, %15
  %19 = call i64 @strlen(i8* noundef nonnull %2) #6
  %20 = icmp ugt i64 %19, %10
  br i1 %20, label %21, label %24, !llvm.loop !8

21:                                               ; preds = %18
  %22 = getelementptr inbounds [300 x i8], [300 x i8]* %1, i64 0, i64 %10
  %23 = load i8, i8* %22, align 1, !tbaa !5
  br label %6

24:                                               ; preds = %18, %0
  call void @llvm.lifetime.end.p0i8(i64 300, i8* nonnull %2) #5
  ret i32 0
}

; Function Attrs: argmemonly mustprogress nofree nosync nounwind willreturn
declare void @llvm.lifetime.start.p0i8(i64 immarg, i8* nocapture) #1

declare i32 @gets(...) local_unnamed_addr #2

; Function Attrs: argmemonly mustprogress nofree nounwind readonly willreturn
declare i64 @strlen(i8* nocapture) local_unnamed_addr #3

; Function Attrs: argmemonly mustprogress nofree nosync nounwind willreturn
declare void @llvm.lifetime.end.p0i8(i64 immarg, i8* nocapture) #1

; Function Attrs: nofree nounwind
declare noundef i32 @putchar(i32 noundef) local_unnamed_addr #4


!llvm.module.flags = !{!0, !1, !2, !3}
!llvm.ident = !{!4}

!0 = !{i32 1, !"wchar_size", i32 4}
!1 = !{i32 7, !"PIC Level", i32 2}
!2 = !{i32 7, !"PIE Level", i32 2}
!3 = !{i32 7, !"uwtable", i32 1}
!4 = !{!"clang version 13.0.0"}
!5 = !{!6, !6, i64 0}
!6 = !{!"omnipotent char", !7, i64 0}
!7 = !{!"Simple C/C++ TBAA"}
!8 = distinct !{!8, !9}
!9 = !{!"llvm.loop.mustprogress"}
